target datalayout = "e-m:e-p270:32:32-p271:32:32-p272:64:64-i64:64-i128:128-f80:128-n8:16:32:64-S128"
target triple = "x86_64-pc-linux-gnu"

%struct.AVRational = type { i32, i32 }
%struct.MatroskaMuxContext = type { ptr, ptr, i32, %struct.ebml_stored_master, %struct.ebml_stored_master, %struct.ebml_stored_master, i64, ptr, i64, i64, i64, i64, ptr, %struct.mkv_seekhead, %struct.mkv_cues, i64, %struct.BlockContext, ptr, ptr, i32, i32, i32, i32, i32, i32, i64, i32, i32, i32, i32, i32, i32, i32, i32, [4 x i32] }
%struct.ebml_stored_master = type { ptr, i64 }
%struct.mkv_seekhead = type { i64, [7 x %struct.mkv_seekhead_entry], i32, i32 }
%struct.mkv_seekhead_entry = type { i32, i64 }
%struct.mkv_cues = type { ptr, i32 }
%struct.BlockContext = type { ptr, ptr, i16, i8, %struct.NALUList }
%struct.NALUList = type { ptr, i32, i32 }
%struct.AVPacket = type { ptr, i64, i64, ptr, i32, i32, i32, ptr, i32, i64, i64, ptr, ptr, %struct.AVRational }

; Function Attrs: nounwind uwtable
define internal i32 @mkv_reformat_h2645(ptr noundef %0, ptr noundef %1, ptr noundef %2, ptr noundef %3) #0 {
  %5 = alloca i32, align 4
  %6 = alloca ptr, align 8
  %7 = alloca ptr, align 8
  %8 = alloca ptr, align 8
  %9 = alloca ptr, align 8
  %10 = alloca i32, align 4
  %11 = alloca i32, align 4
  store ptr %0, ptr %6, align 8, !tbaa !26
  store ptr %1, ptr %7, align 8, !tbaa !29
  store ptr %2, ptr %8, align 8, !tbaa !76
  store ptr %3, ptr %9, align 8, !tbaa !265
  call void @llvm.lifetime.start.p0(i64 4, ptr %10) #16
  %12 = load ptr, ptr %7, align 8, !tbaa !29
  %13 = icmp ne ptr %12, null
  br i1 %13, label %14, label %22

14:                                               ; preds = %4
  %15 = load ptr, ptr %6, align 8, !tbaa !26
  %16 = getelementptr inbounds nuw %struct.MatroskaMuxContext, ptr %15, i32 0, i32 16
  %17 = getelementptr inbounds nuw %struct.BlockContext, ptr %16, i32 0, i32 4
  %18 = load ptr, ptr %7, align 8, !tbaa !29
  %19 = load ptr, ptr %8, align 8, !tbaa !76
  %20 = getelementptr inbounds nuw %struct.AVPacket, ptr %19, i32 0, i32 3
  %21 = load ptr, ptr %20, align 8, !tbaa !132
  call void @ff_nal_units_write_list(ptr noundef %17, ptr noundef %18, ptr noundef %21)
  br label %40

22:                                               ; preds = %4
  %23 = load ptr, ptr %6, align 8, !tbaa !26
  %24 = getelementptr inbounds nuw %struct.MatroskaMuxContext, ptr %23, i32 0, i32 16
  %25 = getelementptr inbounds nuw %struct.BlockContext, ptr %24, i32 0, i32 4
  %26 = load ptr, ptr %8, align 8, !tbaa !76
  %27 = getelementptr inbounds nuw %struct.AVPacket, ptr %26, i32 0, i32 3
  %28 = load ptr, ptr %27, align 8, !tbaa !132
  %29 = load ptr, ptr %8, align 8, !tbaa !76
  %30 = getelementptr inbounds nuw %struct.AVPacket, ptr %29, i32 0, i32 4
  %31 = load i32, ptr %30, align 8, !tbaa !78
  %32 = call i32 @ff_nal_units_create_list(ptr noundef %25, ptr noundef %28, i32 noundef %31)
  store i32 %32, ptr %10, align 4, !tbaa !30
  %33 = load i32, ptr %10, align 4, !tbaa !30
  %34 = icmp slt i32 %33, 0
  br i1 %34, label %35, label %37

35:                                               ; preds = %22
  %36 = load i32, ptr %10, align 4, !tbaa !30
  store i32 %36, ptr %5, align 4
  store i32 1, ptr %11, align 4
  br label %41

37:                                               ; preds = %22
  %38 = load i32, ptr %10, align 4, !tbaa !30
  %39 = load ptr, ptr %9, align 8, !tbaa !265
  store i32 %38, ptr %39, align 4, !tbaa !30
  br label %40

40:                                               ; preds = %37, %14
  store i32 0, ptr %5, align 4
  store i32 1, ptr %11, align 4
  br label %41

41:                                               ; preds = %40, %35
  call void @llvm.lifetime.end.p0(i64 4, ptr %10) #16
  %42 = load i32, ptr %5, align 4
  ret i32 %42
}