; Function Attrs: nounwind uwtable
define internal range(i32 -2147483648, 1) i32 @mkv_reformat_h2645(ptr noundef %0, ptr noundef %1, ptr noundef readonly captures(none) %2, ptr noundef writeonly captures(none) %3) #0 {
  %.not = icmp eq ptr %1, null
  %5 = getelementptr inbounds nuw i8, ptr %0, i64 304
  %6 = getelementptr inbounds nuw i8, ptr %2, i64 24
  %7 = load ptr, ptr %6, align 8, !tbaa !248
  br i1 %.not, label %9, label %8

8:                                                ; preds = %4
  tail call void @ff_nal_units_write_list(ptr noundef nonnull %5, ptr noundef nonnull %1, ptr noundef %7) #14
  br label %15

9:                                                ; preds = %4
  %10 = getelementptr inbounds nuw i8, ptr %2, i64 32
  %11 = load i32, ptr %10, align 8, !tbaa !212
  %12 = tail call i32 @ff_nal_units_create_list(ptr noundef nonnull %5, ptr noundef %7, i32 noundef %11) #14
  %13 = icmp slt i32 %12, 0
  br i1 %13, label %15, label %14

14:                                               ; preds = %9
  store i32 %12, ptr %3, align 4, !tbaa !139
  br label %15

15:                                               ; preds = %8, %14, %9
  %.0 = phi i32 [ %12, %9 ], [ 0, %14 ], [ 0, %8 ]
  ret i32 %.0
}